; ModuleID = '31/1643.c'
source_filename = "31/1643.c"
target datalayout = "e-m:e-p270:32:32-p271:32:32-p272:64:64-i64:64-f80:128-n8:16:32:64-S128"
target triple = "x86_64-pc-linux-gnu"

%struct.student = type { [10 x i8], [20 x i8], i8, i32, [10 x i8], [50 x i8], %struct.student* }

@.str = private unnamed_addr constant [3 x i8] c"%s\00", align 1
@.str.1 = private unnamed_addr constant [4 x i8] c"end\00", align 1
@.str.2 = private unnamed_addr constant [15 x i8] c"%s %c %d %s %s\00", align 1
@.str.3 = private unnamed_addr constant [19 x i8] c"%s %s %c %d %s %s\0A\00", align 1

; Function Attrs: noinline nounwind uwtable
define dso_local void @main() #0 {
  %1 = alloca %struct.student*, align 8
  %2 = alloca %struct.student*, align 8
  %3 = alloca %struct.student*, align 8
  %4 = call noalias i8* @malloc(i64 104) #4
  %5 = bitcast i8* %4 to %struct.student*
  store %struct.student* %5, %struct.student** %1, align 8
  %6 = load %struct.student*, %struct.student** %1, align 8
  %7 = getelementptr inbounds %struct.student, %struct.student* %6, i32 0, i32 6
  store %struct.student* null, %struct.student** %7, align 8
  %8 = load %struct.student*, %struct.student** %1, align 8
  %9 = getelementptr inbounds %struct.student, %struct.student* %8, i32 0, i32 6
  %10 = load %struct.student*, %struct.student** %9, align 8
  store %struct.student* %10, %struct.student** %2, align 8
  br label %11

11:                                               ; preds = %26, %0
  %12 = call noalias i8* @malloc(i64 104) #4
  %13 = bitcast i8* %12 to %struct.student*
  store %struct.student* %13, %struct.student** %3, align 8
  %14 = load %struct.student*, %struct.student** %3, align 8
  %15 = getelementptr inbounds %struct.student, %struct.student* %14, i32 0, i32 6
  store %struct.student* null, %struct.student** %15, align 8
  %16 = load %struct.student*, %struct.student** %3, align 8
  %17 = getelementptr inbounds %struct.student, %struct.student* %16, i32 0, i32 0
  %18 = getelementptr inbounds [10 x i8], [10 x i8]* %17, i64 0, i64 0
  %19 = call i32 (i8*, ...) @__isoc99_scanf(i8* getelementptr inbounds ([3 x i8], [3 x i8]* @.str, i64 0, i64 0), i8* %18)
  %20 = load %struct.student*, %struct.student** %3, align 8
  %21 = getelementptr inbounds %struct.student, %struct.student* %20, i32 0, i32 0
  %22 = getelementptr inbounds [10 x i8], [10 x i8]* %21, i64 0, i64 0
  %23 = call i32 @strcmp(i8* %22, i8* getelementptr inbounds ([4 x i8], [4 x i8]* @.str.1, i64 0, i64 0)) #5
  %24 = icmp eq i32 %23, 0
  br i1 %24, label %25, label %26

25:                                               ; preds = %11
  br label %48

26:                                               ; preds = %11
  %27 = load %struct.student*, %struct.student** %3, align 8
  %28 = getelementptr inbounds %struct.student, %struct.student* %27, i32 0, i32 1
  %29 = getelementptr inbounds [20 x i8], [20 x i8]* %28, i64 0, i64 0
  %30 = load %struct.student*, %struct.student** %3, align 8
  %31 = getelementptr inbounds %struct.student, %struct.student* %30, i32 0, i32 2
  %32 = load %struct.student*, %struct.student** %3, align 8
  %33 = getelementptr inbounds %struct.student, %struct.student* %32, i32 0, i32 3
  %34 = load %struct.student*, %struct.student** %3, align 8
  %35 = getelementptr inbounds %struct.student, %struct.student* %34, i32 0, i32 4
  %36 = getelementptr inbounds [10 x i8], [10 x i8]* %35, i64 0, i64 0
  %37 = load %struct.student*, %struct.student** %3, align 8
  %38 = getelementptr inbounds %struct.student, %struct.student* %37, i32 0, i32 5
  %39 = getelementptr inbounds [50 x i8], [50 x i8]* %38, i64 0, i64 0
  %40 = call i32 (i8*, ...) @__isoc99_scanf(i8* getelementptr inbounds ([15 x i8], [15 x i8]* @.str.2, i64 0, i64 0), i8* %29, i8* %31, i32* %33, i8* %36, i8* %39)
  %41 = load %struct.student*, %struct.student** %3, align 8
  %42 = load %struct.student*, %struct.student** %1, align 8
  %43 = getelementptr inbounds %struct.student, %struct.student* %42, i32 0, i32 6
  store %struct.student* %41, %struct.student** %43, align 8
  %44 = load %struct.student*, %struct.student** %2, align 8
  %45 = load %struct.student*, %struct.student** %3, align 8
  %46 = getelementptr inbounds %struct.student, %struct.student* %45, i32 0, i32 6
  store %struct.student* %44, %struct.student** %46, align 8
  %47 = load %struct.student*, %struct.student** %3, align 8
  store %struct.student* %47, %struct.student** %2, align 8
  br label %11

48:                                               ; preds = %25
  br label %49

49:                                               ; preds = %52, %48
  %50 = load %struct.student*, %struct.student** %2, align 8
  %51 = icmp ne %struct.student* %50, null
  br i1 %51, label %52, label %76

52:                                               ; preds = %49
  %53 = load %struct.student*, %struct.student** %2, align 8
  %54 = getelementptr inbounds %struct.student, %struct.student* %53, i32 0, i32 0
  %55 = getelementptr inbounds [10 x i8], [10 x i8]* %54, i64 0, i64 0
  %56 = load %struct.student*, %struct.student** %2, align 8
  %57 = getelementptr inbounds %struct.student, %struct.student* %56, i32 0, i32 1
  %58 = getelementptr inbounds [20 x i8], [20 x i8]* %57, i64 0, i64 0
  %59 = load %struct.student*, %struct.student** %2, align 8
  %60 = getelementptr inbounds %struct.student, %struct.student* %59, i32 0, i32 2
  %61 = load i8, i8* %60, align 2
  %62 = sext i8 %61 to i32
  %63 = load %struct.student*, %struct.student** %2, align 8
  %64 = getelementptr inbounds %struct.student, %struct.student* %63, i32 0, i32 3
  %65 = load i32, i32* %64, align 8
  %66 = load %struct.student*, %struct.student** %2, align 8
  %67 = getelementptr inbounds %struct.student, %struct.student* %66, i32 0, i32 4
  %68 = getelementptr inbounds [10 x i8], [10 x i8]* %67, i64 0, i64 0
  %69 = load %struct.student*, %struct.student** %2, align 8
  %70 = getelementptr inbounds %struct.student, %struct.student* %69, i32 0, i32 5
  %71 = getelementptr inbounds [50 x i8], [50 x i8]* %70, i64 0, i64 0
  %72 = call i32 (i8*, ...) @printf(i8* getelementptr inbounds ([19 x i8], [19 x i8]* @.str.3, i64 0, i64 0), i8* %55, i8* %58, i32 %62, i32 %65, i8* %68, i8* %71)
  %73 = load %struct.student*, %struct.student** %2, align 8
  %74 = getelementptr inbounds %struct.student, %struct.student* %73, i32 0, i32 6
  %75 = load %struct.student*, %struct.student** %74, align 8
  store %struct.student* %75, %struct.student** %2, align 8
  br label %49

76:                                               ; preds = %49
  ret void
}

; Function Attrs: nounwind
declare dso_local noalias i8* @malloc(i64) #1

declare dso_local i32 @__isoc99_scanf(i8*, ...) #2

; Function Attrs: nounwind readonly
declare dso_local i32 @strcmp(i8*, i8*) #3

declare dso_local i32 @printf(i8*, ...) #2


!llvm.module.flags = !{!0}
!llvm.ident = !{!1}

!0 = !{i32 1, !"wchar_size", i32 4}
!1 = !{!"clang version 10.0.0-4ubuntu1 "}
