; ModuleID = 'source-C-CXX/30/1643.c'
source_filename = "source-C-CXX/30/1643.c"
target datalayout = "e-m:e-p270:32:32-p271:32:32-p272:64:64-i64:64-f80:128-n8:16:32:64-S128"
target triple = "x86_64-pc-linux-gnu"

%struct.student = type { [10 x i8], [20 x i8], i8, i32, [10 x i8], [50 x i8], %struct.student* }

@.str = private unnamed_addr constant [3 x i8] c"%s\00", align 1
@.str.1 = private unnamed_addr constant [4 x i8] c"end\00", align 1
@.str.2 = private unnamed_addr constant [15 x i8] c"%s %c %d %s %s\00", align 1
@.str.3 = private unnamed_addr constant [19 x i8] c"%s %s %c %d %s %s\0A\00", align 1

; Function Attrs: nofree nounwind sspstrong uwtable
define dso_local void @main() local_unnamed_addr #0 {
  %1 = tail call noalias align 16 dereferenceable_or_null(104) i8* @malloc(i64 104) #4
  %2 = bitcast i8* %1 to %struct.student*
  %3 = getelementptr inbounds %struct.student, %struct.student* %2, i64 0, i32 6
  store %struct.student* null, %struct.student** %3, align 16, !tbaa !5
  %4 = getelementptr inbounds %struct.student, %struct.student* %2, i64 0, i32 0, i64 0
  %5 = tail call i32 (i8*, ...) @__isoc99_scanf(i8* getelementptr inbounds ([3 x i8], [3 x i8]* @.str, i64 0, i64 0), i8* %4)
  %6 = tail call i32 @strcmp(i8* noundef nonnull dereferenceable(1) %4, i8* noundef nonnull dereferenceable(4) getelementptr inbounds ([4 x i8], [4 x i8]* @.str.1, i64 0, i64 0)) #5
  %7 = icmp eq i32 %6, 0
  br i1 %7, label %40, label %8

8:                                                ; preds = %0, %8
  %9 = phi %struct.student** [ %20, %8 ], [ %3, %0 ]
  %10 = phi %struct.student* [ %19, %8 ], [ %2, %0 ]
  %11 = phi %struct.student* [ %10, %8 ], [ null, %0 ]
  %12 = getelementptr inbounds %struct.student, %struct.student* %10, i64 0, i32 1, i64 0
  %13 = getelementptr inbounds %struct.student, %struct.student* %10, i64 0, i32 2
  %14 = getelementptr inbounds %struct.student, %struct.student* %10, i64 0, i32 3
  %15 = getelementptr inbounds %struct.student, %struct.student* %10, i64 0, i32 4, i64 0
  %16 = getelementptr inbounds %struct.student, %struct.student* %10, i64 0, i32 5, i64 0
  %17 = tail call i32 (i8*, ...) @__isoc99_scanf(i8* getelementptr inbounds ([15 x i8], [15 x i8]* @.str.2, i64 0, i64 0), i8* nonnull %12, i8* nonnull %13, i32* nonnull %14, i8* nonnull %15, i8* nonnull %16)
  store %struct.student* %11, %struct.student** %9, align 16, !tbaa !5
  %18 = tail call noalias align 16 dereferenceable_or_null(104) i8* @malloc(i64 104) #4
  %19 = bitcast i8* %18 to %struct.student*
  %20 = getelementptr inbounds %struct.student, %struct.student* %19, i64 0, i32 6
  store %struct.student* null, %struct.student** %20, align 16, !tbaa !5
  %21 = getelementptr inbounds %struct.student, %struct.student* %19, i64 0, i32 0, i64 0
  %22 = tail call i32 (i8*, ...) @__isoc99_scanf(i8* getelementptr inbounds ([3 x i8], [3 x i8]* @.str, i64 0, i64 0), i8* %21)
  %23 = tail call i32 @strcmp(i8* noundef nonnull dereferenceable(1) %21, i8* noundef nonnull dereferenceable(4) getelementptr inbounds ([4 x i8], [4 x i8]* @.str.1, i64 0, i64 0)) #5
  %24 = icmp eq i32 %23, 0
  br i1 %24, label %25, label %8

25:                                               ; preds = %8, %25
  %26 = phi %struct.student* [ %38, %25 ], [ %10, %8 ]
  %27 = getelementptr inbounds %struct.student, %struct.student* %26, i64 0, i32 0, i64 0
  %28 = getelementptr inbounds %struct.student, %struct.student* %26, i64 0, i32 1, i64 0
  %29 = getelementptr inbounds %struct.student, %struct.student* %26, i64 0, i32 2
  %30 = load i8, i8* %29, align 2, !tbaa !11
  %31 = sext i8 %30 to i32
  %32 = getelementptr inbounds %struct.student, %struct.student* %26, i64 0, i32 3
  %33 = load i32, i32* %32, align 8, !tbaa !12
  %34 = getelementptr inbounds %struct.student, %struct.student* %26, i64 0, i32 4, i64 0
  %35 = getelementptr inbounds %struct.student, %struct.student* %26, i64 0, i32 5, i64 0
  %36 = tail call i32 (i8*, ...) @printf(i8* nonnull dereferenceable(1) getelementptr inbounds ([19 x i8], [19 x i8]* @.str.3, i64 0, i64 0), i8* nonnull %27, i8* nonnull %28, i32 %31, i32 %33, i8* nonnull %34, i8* nonnull %35)
  %37 = getelementptr inbounds %struct.student, %struct.student* %26, i64 0, i32 6
  %38 = load %struct.student*, %struct.student** %37, align 8, !tbaa !5
  %39 = icmp eq %struct.student* %38, null
  br i1 %39, label %40, label %25, !llvm.loop !13

40:                                               ; preds = %25, %0
  ret void
}

; Function Attrs: inaccessiblememonly mustprogress nofree nounwind willreturn
declare noalias noundef align 16 i8* @malloc(i64 noundef) local_unnamed_addr #1

; Function Attrs: nofree nounwind
declare noundef i32 @__isoc99_scanf(i8* nocapture noundef readonly, ...) local_unnamed_addr #2

; Function Attrs: argmemonly mustprogress nofree nounwind readonly willreturn
declare i32 @strcmp(i8* nocapture, i8* nocapture) local_unnamed_addr #3

; Function Attrs: nofree nounwind
declare noundef i32 @printf(i8* nocapture noundef readonly, ...) local_unnamed_addr #2


!llvm.module.flags = !{!0, !1, !2, !3}
!llvm.ident = !{!4}

!0 = !{i32 1, !"wchar_size", i32 4}
!1 = !{i32 7, !"PIC Level", i32 2}
!2 = !{i32 7, !"PIE Level", i32 2}
!3 = !{i32 7, !"uwtable", i32 1}
!4 = !{!"clang version 13.0.0"}
!5 = !{!6, !10, i64 96}
!6 = !{!"student", !7, i64 0, !7, i64 10, !7, i64 30, !9, i64 32, !7, i64 36, !7, i64 46, !10, i64 96}
!7 = !{!"omnipotent char", !8, i64 0}
!8 = !{!"Simple C/C++ TBAA"}
!9 = !{!"int", !7, i64 0}
!10 = !{!"any pointer", !7, i64 0}
!11 = !{!6, !7, i64 30}
!12 = !{!6, !9, i64 32}
!13 = distinct !{!13, !14}
!14 = !{!"llvm.loop.mustprogress"}
